#include <math.h>
#include <stdio.h>
#include <stdlib.h>
#include <string.h>

int main(int argc, char* argv[])
{
	int n,m,q,i,k;
	scanf("%d",&n);
	scanf("%d",&m);
	int *a=(int*)malloc(sizeof(int)*n);
    for (i=0;i<n;i++)
	{
	    scanf("%d",&a[i]);
	}
	for(k=0;k<n-m;k++)
	{
		q=a[0];
	     for(i=0;i<n-1;i++)
		 {
		     a[i]=a[i+1];
		 }
		 a[n-1]=q;
	}


	for (i=0;i<n-1;i++)
	{
	     printf("%d ",a[i]);
	}
	printf("%d",a[n-1]);
	return 0;
}
